target datalayout = "e-m:e-p270:32:32-p271:32:32-p272:64:64-i64:64-i128:128-f80:128-n8:16:32:64-S128"
target triple = "x86_64-pc-linux-gnu"

; Function Attrs: alwaysinline nounwind willreturn memory(none) uwtable
define internal zeroext i8 @av_clip_uint8_c(i32 noundef %0) #2 {
  %2 = alloca i8, align 1
  %3 = alloca i32, align 4
  store i32 %0, ptr %3, align 4, !tbaa !11
  %4 = load i32, ptr %3, align 4, !tbaa !11
  %5 = and i32 %4, -256
  %6 = icmp ne i32 %5, 0
  br i1 %6, label %7, label %12

7:                                                ; preds = %1
  %8 = load i32, ptr %3, align 4, !tbaa !11
  %9 = xor i32 %8, -1
  %10 = ashr i32 %9, 31
  %11 = trunc i32 %10 to i8
  store i8 %11, ptr %2, align 1
  br label %15

12:                                               ; preds = %1
  %13 = load i32, ptr %3, align 4, !tbaa !11
  %14 = trunc i32 %13 to i8
  store i8 %14, ptr %2, align 1
  br label %15

15:                                               ; preds = %12, %7
  %16 = load i8, ptr %2, align 1
  ret i8 %16
}

; Function Attrs: nounwind uwtable
define void @ff_rv60_idct4x4_add(ptr noundef %0, ptr noundef %1, i32 noundef %2) #0 {
  %4 = alloca ptr, align 8
  %5 = alloca ptr, align 8
  %6 = alloca i32, align 4
  %7 = alloca [16 x i32], align 16
  %8 = alloca i32, align 4
  %9 = alloca i32, align 4
  %10 = alloca i32, align 4
  %11 = alloca i32, align 4
  %12 = alloca i32, align 4
  %13 = alloca i32, align 4
  %14 = alloca i32, align 4
  %15 = alloca i32, align 4
  %16 = alloca i32, align 4
  %17 = alloca i32, align 4
  %18 = alloca i32, align 4
  %19 = alloca i32, align 4
  %20 = alloca i32, align 4
  %21 = alloca i32, align 4
  %22 = alloca i32, align 4
  %23 = alloca i32, align 4
  %24 = alloca i32, align 4
  %25 = alloca i32, align 4
  store ptr %0, ptr %4, align 8, !tbaa !4
  store ptr %1, ptr %5, align 8, !tbaa !9
  store i32 %2, ptr %6, align 4, !tbaa !11
  call void @llvm.lifetime.start.p0(i64 64, ptr %7) #3
  call void @llvm.lifetime.start.p0(i64 4, ptr %8) #3
  store i32 0, ptr %8, align 4, !tbaa !11
  br label %26

26:                                               ; preds = %121, %3
  %27 = load i32, ptr %8, align 4, !tbaa !11
  %28 = icmp slt i32 %27, 4
  br i1 %28, label %30, label %29

29:                                               ; preds = %26
  call void @llvm.lifetime.end.p0(i64 4, ptr %8) #3
  br label %124

30:                                               ; preds = %26
  call void @llvm.lifetime.start.p0(i64 4, ptr %9) #3
  %31 = load ptr, ptr %4, align 8, !tbaa !4
  %32 = load i32, ptr %8, align 4, !tbaa !11
  %33 = mul nsw i32 %32, 1
  %34 = add nsw i32 %33, 0
  %35 = sext i32 %34 to i64
  %36 = getelementptr inbounds i16, ptr %31, i64 %35
  %37 = load i16, ptr %36, align 2, !tbaa !13
  %38 = sext i16 %37 to i32
  store i32 %38, ptr %9, align 4, !tbaa !11
  call void @llvm.lifetime.start.p0(i64 4, ptr %10) #3
  %39 = load ptr, ptr %4, align 8, !tbaa !4
  %40 = load i32, ptr %8, align 4, !tbaa !11
  %41 = mul nsw i32 %40, 1
  %42 = add nsw i32 %41, 4
  %43 = sext i32 %42 to i64
  %44 = getelementptr inbounds i16, ptr %39, i64 %43
  %45 = load i16, ptr %44, align 2, !tbaa !13
  %46 = sext i16 %45 to i32
  store i32 %46, ptr %10, align 4, !tbaa !11
  call void @llvm.lifetime.start.p0(i64 4, ptr %11) #3
  %47 = load ptr, ptr %4, align 8, !tbaa !4
  %48 = load i32, ptr %8, align 4, !tbaa !11
  %49 = mul nsw i32 %48, 1
  %50 = add nsw i32 %49, 8
  %51 = sext i32 %50 to i64
  %52 = getelementptr inbounds i16, ptr %47, i64 %51
  %53 = load i16, ptr %52, align 2, !tbaa !13
  %54 = sext i16 %53 to i32
  store i32 %54, ptr %11, align 4, !tbaa !11
  call void @llvm.lifetime.start.p0(i64 4, ptr %12) #3
  %55 = load ptr, ptr %4, align 8, !tbaa !4
  %56 = load i32, ptr %8, align 4, !tbaa !11
  %57 = mul nsw i32 %56, 1
  %58 = add nsw i32 %57, 12
  %59 = sext i32 %58 to i64
  %60 = getelementptr inbounds i16, ptr %55, i64 %59
  %61 = load i16, ptr %60, align 2, !tbaa !13
  %62 = sext i16 %61 to i32
  store i32 %62, ptr %12, align 4, !tbaa !11
  call void @llvm.lifetime.start.p0(i64 4, ptr %13) #3
  %63 = load i32, ptr %9, align 4, !tbaa !11
  %64 = load i32, ptr %11, align 4, !tbaa !11
  %65 = add nsw i32 %63, %64
  %66 = mul nsw i32 13, %65
  store i32 %66, ptr %13, align 4, !tbaa !11
  call void @llvm.lifetime.start.p0(i64 4, ptr %14) #3
  %67 = load i32, ptr %9, align 4, !tbaa !11
  %68 = load i32, ptr %11, align 4, !tbaa !11
  %69 = sub nsw i32 %67, %68
  %70 = mul nsw i32 13, %69
  store i32 %70, ptr %14, align 4, !tbaa !11
  call void @llvm.lifetime.start.p0(i64 4, ptr %15) #3
  %71 = load i32, ptr %10, align 4, !tbaa !11
  %72 = mul nsw i32 7, %71
  %73 = load i32, ptr %12, align 4, !tbaa !11
  %74 = mul nsw i32 17, %73
  %75 = sub nsw i32 %72, %74
  store i32 %75, ptr %15, align 4, !tbaa !11
  call void @llvm.lifetime.start.p0(i64 4, ptr %16) #3
  %76 = load i32, ptr %12, align 4, !tbaa !11
  %77 = mul nsw i32 7, %76
  %78 = load i32, ptr %10, align 4, !tbaa !11
  %79 = mul nsw i32 17, %78
  %80 = add nsw i32 %77, %79
  store i32 %80, ptr %16, align 4, !tbaa !11
  %81 = load i32, ptr %13, align 4, !tbaa !11
  %82 = load i32, ptr %16, align 4, !tbaa !11
  %83 = add nsw i32 %81, %82
  %84 = add nsw i32 %83, 16
  %85 = ashr i32 %84, 5
  %86 = load i32, ptr %8, align 4, !tbaa !11
  %87 = mul nsw i32 %86, 1
  %88 = add nsw i32 %87, 0
  %89 = sext i32 %88 to i64
  %90 = getelementptr inbounds [16 x i32], ptr %7, i64 0, i64 %89
  store i32 %85, ptr %90, align 4, !tbaa !11
  %91 = load i32, ptr %14, align 4, !tbaa !11
  %92 = load i32, ptr %15, align 4, !tbaa !11
  %93 = add nsw i32 %91, %92
  %94 = add nsw i32 %93, 16
  %95 = ashr i32 %94, 5
  %96 = load i32, ptr %8, align 4, !tbaa !11
  %97 = mul nsw i32 %96, 1
  %98 = add nsw i32 %97, 4
  %99 = sext i32 %98 to i64
  %100 = getelementptr inbounds [16 x i32], ptr %7, i64 0, i64 %99
  store i32 %95, ptr %100, align 4, !tbaa !11
  %101 = load i32, ptr %14, align 4, !tbaa !11
  %102 = load i32, ptr %15, align 4, !tbaa !11
  %103 = sub nsw i32 %101, %102
  %104 = add nsw i32 %103, 16
  %105 = ashr i32 %104, 5
  %106 = load i32, ptr %8, align 4, !tbaa !11
  %107 = mul nsw i32 %106, 1
  %108 = add nsw i32 %107, 8
  %109 = sext i32 %108 to i64
  %110 = getelementptr inbounds [16 x i32], ptr %7, i64 0, i64 %109
  store i32 %105, ptr %110, align 4, !tbaa !11
  %111 = load i32, ptr %13, align 4, !tbaa !11
  %112 = load i32, ptr %16, align 4, !tbaa !11
  %113 = sub nsw i32 %111, %112
  %114 = add nsw i32 %113, 16
  %115 = ashr i32 %114, 5
  %116 = load i32, ptr %8, align 4, !tbaa !11
  %117 = mul nsw i32 %116, 1
  %118 = add nsw i32 %117, 12
  %119 = sext i32 %118 to i64
  %120 = getelementptr inbounds [16 x i32], ptr %7, i64 0, i64 %119
  store i32 %115, ptr %120, align 4, !tbaa !11
  call void @llvm.lifetime.end.p0(i64 4, ptr %16) #3
  call void @llvm.lifetime.end.p0(i64 4, ptr %15) #3
  call void @llvm.lifetime.end.p0(i64 4, ptr %14) #3
  call void @llvm.lifetime.end.p0(i64 4, ptr %13) #3
  call void @llvm.lifetime.end.p0(i64 4, ptr %12) #3
  call void @llvm.lifetime.end.p0(i64 4, ptr %11) #3
  call void @llvm.lifetime.end.p0(i64 4, ptr %10) #3
  call void @llvm.lifetime.end.p0(i64 4, ptr %9) #3
  br label %121

121:                                              ; preds = %30
  %122 = load i32, ptr %8, align 4, !tbaa !11
  %123 = add nsw i32 %122, 1
  store i32 %123, ptr %8, align 4, !tbaa !11
  br label %26, !llvm.loop !15

124:                                              ; preds = %29
  call void @llvm.lifetime.start.p0(i64 4, ptr %17) #3
  store i32 0, ptr %17, align 4, !tbaa !11
  br label %125

125:                                              ; preds = %264, %124
  %126 = load i32, ptr %17, align 4, !tbaa !11
  %127 = icmp slt i32 %126, 4
  br i1 %127, label %129, label %128

128:                                              ; preds = %125
  call void @llvm.lifetime.end.p0(i64 4, ptr %17) #3
  br label %267

129:                                              ; preds = %125
  call void @llvm.lifetime.start.p0(i64 4, ptr %18) #3
  %130 = load i32, ptr %17, align 4, !tbaa !11
  %131 = mul nsw i32 %130, 4
  %132 = add nsw i32 %131, 0
  %133 = sext i32 %132 to i64
  %134 = getelementptr inbounds [16 x i32], ptr %7, i64 0, i64 %133
  %135 = load i32, ptr %134, align 4, !tbaa !11
  store i32 %135, ptr %18, align 4, !tbaa !11
  call void @llvm.lifetime.start.p0(i64 4, ptr %19) #3
  %136 = load i32, ptr %17, align 4, !tbaa !11
  %137 = mul nsw i32 %136, 4
  %138 = add nsw i32 %137, 1
  %139 = sext i32 %138 to i64
  %140 = getelementptr inbounds [16 x i32], ptr %7, i64 0, i64 %139
  %141 = load i32, ptr %140, align 4, !tbaa !11
  store i32 %141, ptr %19, align 4, !tbaa !11
  call void @llvm.lifetime.start.p0(i64 4, ptr %20) #3
  %142 = load i32, ptr %17, align 4, !tbaa !11
  %143 = mul nsw i32 %142, 4
  %144 = add nsw i32 %143, 2
  %145 = sext i32 %144 to i64
  %146 = getelementptr inbounds [16 x i32], ptr %7, i64 0, i64 %145
  %147 = load i32, ptr %146, align 4, !tbaa !11
  store i32 %147, ptr %20, align 4, !tbaa !11
  call void @llvm.lifetime.start.p0(i64 4, ptr %21) #3
  %148 = load i32, ptr %17, align 4, !tbaa !11
  %149 = mul nsw i32 %148, 4
  %150 = add nsw i32 %149, 3
  %151 = sext i32 %150 to i64
  %152 = getelementptr inbounds [16 x i32], ptr %7, i64 0, i64 %151
  %153 = load i32, ptr %152, align 4, !tbaa !11
  store i32 %153, ptr %21, align 4, !tbaa !11
  call void @llvm.lifetime.start.p0(i64 4, ptr %22) #3
  %154 = load i32, ptr %18, align 4, !tbaa !11
  %155 = load i32, ptr %20, align 4, !tbaa !11
  %156 = add nsw i32 %154, %155
  %157 = mul nsw i32 13, %156
  store i32 %157, ptr %22, align 4, !tbaa !11
  call void @llvm.lifetime.start.p0(i64 4, ptr %23) #3
  %158 = load i32, ptr %18, align 4, !tbaa !11
  %159 = load i32, ptr %20, align 4, !tbaa !11
  %160 = sub nsw i32 %158, %159
  %161 = mul nsw i32 13, %160
  store i32 %161, ptr %23, align 4, !tbaa !11
  call void @llvm.lifetime.start.p0(i64 4, ptr %24) #3
  %162 = load i32, ptr %19, align 4, !tbaa !11
  %163 = mul nsw i32 7, %162
  %164 = load i32, ptr %21, align 4, !tbaa !11
  %165 = mul nsw i32 17, %164
  %166 = sub nsw i32 %163, %165
  store i32 %166, ptr %24, align 4, !tbaa !11
  call void @llvm.lifetime.start.p0(i64 4, ptr %25) #3
  %167 = load i32, ptr %21, align 4, !tbaa !11
  %168 = mul nsw i32 7, %167
  %169 = load i32, ptr %19, align 4, !tbaa !11
  %170 = mul nsw i32 17, %169
  %171 = add nsw i32 %168, %170
  store i32 %171, ptr %25, align 4, !tbaa !11
  %172 = load ptr, ptr %5, align 8, !tbaa !9
  %173 = load i32, ptr %17, align 4, !tbaa !11
  %174 = load i32, ptr %6, align 4, !tbaa !11
  %175 = mul nsw i32 %173, %174
  %176 = add nsw i32 %175, 0
  %177 = sext i32 %176 to i64
  %178 = getelementptr inbounds i8, ptr %172, i64 %177
  %179 = load i8, ptr %178, align 1, !tbaa !17
  %180 = zext i8 %179 to i32
  %181 = load i32, ptr %22, align 4, !tbaa !11
  %182 = load i32, ptr %25, align 4, !tbaa !11
  %183 = add nsw i32 %181, %182
  %184 = add nsw i32 %183, 16
  %185 = ashr i32 %184, 5
  %186 = add nsw i32 %180, %185
  %187 = call zeroext i8 @av_clip_uint8_c(i32 noundef %186) #4
  %188 = load ptr, ptr %5, align 8, !tbaa !9
  %189 = load i32, ptr %17, align 4, !tbaa !11
  %190 = load i32, ptr %6, align 4, !tbaa !11
  %191 = mul nsw i32 %189, %190
  %192 = add nsw i32 %191, 0
  %193 = sext i32 %192 to i64
  %194 = getelementptr inbounds i8, ptr %188, i64 %193
  store i8 %187, ptr %194, align 1, !tbaa !17
  %195 = load ptr, ptr %5, align 8, !tbaa !9
  %196 = load i32, ptr %17, align 4, !tbaa !11
  %197 = load i32, ptr %6, align 4, !tbaa !11
  %198 = mul nsw i32 %196, %197
  %199 = add nsw i32 %198, 1
  %200 = sext i32 %199 to i64
  %201 = getelementptr inbounds i8, ptr %195, i64 %200
  %202 = load i8, ptr %201, align 1, !tbaa !17
  %203 = zext i8 %202 to i32
  %204 = load i32, ptr %23, align 4, !tbaa !11
  %205 = load i32, ptr %24, align 4, !tbaa !11
  %206 = add nsw i32 %204, %205
  %207 = add nsw i32 %206, 16
  %208 = ashr i32 %207, 5
  %209 = add nsw i32 %203, %208
  %210 = call zeroext i8 @av_clip_uint8_c(i32 noundef %209) #4
  %211 = load ptr, ptr %5, align 8, !tbaa !9
  %212 = load i32, ptr %17, align 4, !tbaa !11
  %213 = load i32, ptr %6, align 4, !tbaa !11
  %214 = mul nsw i32 %212, %213
  %215 = add nsw i32 %214, 1
  %216 = sext i32 %215 to i64
  %217 = getelementptr inbounds i8, ptr %211, i64 %216
  store i8 %210, ptr %217, align 1, !tbaa !17
  %218 = load ptr, ptr %5, align 8, !tbaa !9
  %219 = load i32, ptr %17, align 4, !tbaa !11
  %220 = load i32, ptr %6, align 4, !tbaa !11
  %221 = mul nsw i32 %219, %220
  %222 = add nsw i32 %221, 2
  %223 = sext i32 %222 to i64
  %224 = getelementptr inbounds i8, ptr %218, i64 %223
  %225 = load i8, ptr %224, align 1, !tbaa !17
  %226 = zext i8 %225 to i32
  %227 = load i32, ptr %23, align 4, !tbaa !11
  %228 = load i32, ptr %24, align 4, !tbaa !11
  %229 = sub nsw i32 %227, %228
  %230 = add nsw i32 %229, 16
  %231 = ashr i32 %230, 5
  %232 = add nsw i32 %226, %231
  %233 = call zeroext i8 @av_clip_uint8_c(i32 noundef %232) #4
  %234 = load ptr, ptr %5, align 8, !tbaa !9
  %235 = load i32, ptr %17, align 4, !tbaa !11
  %236 = load i32, ptr %6, align 4, !tbaa !11
  %237 = mul nsw i32 %235, %236
  %238 = add nsw i32 %237, 2
  %239 = sext i32 %238 to i64
  %240 = getelementptr inbounds i8, ptr %234, i64 %239
  store i8 %233, ptr %240, align 1, !tbaa !17
  %241 = load ptr, ptr %5, align 8, !tbaa !9
  %242 = load i32, ptr %17, align 4, !tbaa !11
  %243 = load i32, ptr %6, align 4, !tbaa !11
  %244 = mul nsw i32 %242, %243
  %245 = add nsw i32 %244, 3
  %246 = sext i32 %245 to i64
  %247 = getelementptr inbounds i8, ptr %241, i64 %246
  %248 = load i8, ptr %247, align 1, !tbaa !17
  %249 = zext i8 %248 to i32
  %250 = load i32, ptr %22, align 4, !tbaa !11
  %251 = load i32, ptr %25, align 4, !tbaa !11
  %252 = sub nsw i32 %250, %251
  %253 = add nsw i32 %252, 16
  %254 = ashr i32 %253, 5
  %255 = add nsw i32 %249, %254
  %256 = call zeroext i8 @av_clip_uint8_c(i32 noundef %255) #4
  %257 = load ptr, ptr %5, align 8, !tbaa !9
  %258 = load i32, ptr %17, align 4, !tbaa !11
  %259 = load i32, ptr %6, align 4, !tbaa !11
  %260 = mul nsw i32 %258, %259
  %261 = add nsw i32 %260, 3
  %262 = sext i32 %261 to i64
  %263 = getelementptr inbounds i8, ptr %257, i64 %262
  store i8 %256, ptr %263, align 1, !tbaa !17
  call void @llvm.lifetime.end.p0(i64 4, ptr %25) #3
  call void @llvm.lifetime.end.p0(i64 4, ptr %24) #3
  call void @llvm.lifetime.end.p0(i64 4, ptr %23) #3
  call void @llvm.lifetime.end.p0(i64 4, ptr %22) #3
  call void @llvm.lifetime.end.p0(i64 4, ptr %21) #3
  call void @llvm.lifetime.end.p0(i64 4, ptr %20) #3
  call void @llvm.lifetime.end.p0(i64 4, ptr %19) #3
  call void @llvm.lifetime.end.p0(i64 4, ptr %18) #3
  br label %264

264:                                              ; preds = %129
  %265 = load i32, ptr %17, align 4, !tbaa !11
  %266 = add nsw i32 %265, 1
  store i32 %266, ptr %17, align 4, !tbaa !11
  br label %125, !llvm.loop !18

267:                                              ; preds = %128
  call void @llvm.lifetime.end.p0(i64 64, ptr %7) #3
  ret void
}