; Function Attrs: nofree norecurse nosync nounwind memory(argmem: readwrite) uwtable
define void @ff_rv60_idct4x4_add(ptr noundef readonly captures(none) %0, ptr noundef captures(none) %1, i32 noundef %2) local_unnamed_addr #0 {
  %4 = alloca [16 x i32], align 16
  call void @llvm.lifetime.start.p0(i64 64, ptr nonnull %4) #3
  br label %5

5:                                                ; preds = %3, %5
  %indvars.iv = phi i64 [ 0, %3 ], [ %indvars.iv.next, %5 ]
  %6 = getelementptr inbounds nuw i16, ptr %0, i64 %indvars.iv
  %7 = load i16, ptr %6, align 2, !tbaa !4
  %8 = sext i16 %7 to i32
  %9 = or disjoint i64 %indvars.iv, 4
  %10 = getelementptr inbounds nuw i16, ptr %0, i64 %9
  %11 = load i16, ptr %10, align 2, !tbaa !4
  %12 = sext i16 %11 to i32
  %13 = or disjoint i64 %indvars.iv, 8
  %14 = getelementptr inbounds nuw i16, ptr %0, i64 %13
  %15 = load i16, ptr %14, align 2, !tbaa !4
  %16 = sext i16 %15 to i32
  %17 = or disjoint i64 %indvars.iv, 12
  %18 = getelementptr inbounds nuw i16, ptr %0, i64 %17
  %19 = load i16, ptr %18, align 2, !tbaa !4
  %20 = sext i16 %19 to i32
  %21 = add nsw i32 %16, %8
  %22 = mul nsw i32 %21, 13
  %23 = sub nsw i32 %8, %16
  %24 = mul nsw i32 %23, 13
  %25 = mul nsw i32 %12, 7
  %.neg76 = mul nsw i32 %20, -17
  %26 = add nsw i32 %.neg76, %25
  %27 = mul nsw i32 %20, 7
  %28 = mul nsw i32 %12, 17
  %29 = add nsw i32 %27, %28
  %30 = add nsw i32 %22, 16
  %31 = add nsw i32 %30, %29
  %32 = ashr i32 %31, 5
  %33 = getelementptr inbounds nuw [16 x i32], ptr %4, i64 0, i64 %indvars.iv
  store i32 %32, ptr %33, align 4, !tbaa !8
  %34 = add nsw i32 %24, 16
  %35 = add nsw i32 %34, %26
  %36 = ashr i32 %35, 5
  %37 = getelementptr inbounds nuw [16 x i32], ptr %4, i64 0, i64 %9
  store i32 %36, ptr %37, align 4, !tbaa !8
  %38 = sub nsw i32 %34, %26
  %39 = ashr i32 %38, 5
  %40 = getelementptr inbounds nuw [16 x i32], ptr %4, i64 0, i64 %13
  store i32 %39, ptr %40, align 4, !tbaa !8
  %41 = sub nsw i32 %30, %29
  %42 = ashr i32 %41, 5
  %43 = getelementptr inbounds nuw [16 x i32], ptr %4, i64 0, i64 %17
  store i32 %42, ptr %43, align 4, !tbaa !8
  %indvars.iv.next = add nuw nsw i64 %indvars.iv, 1
  %exitcond.not = icmp eq i64 %indvars.iv.next, 4
  br i1 %exitcond.not, label %.preheader.lver.check, label %5, !llvm.loop !10

.preheader.lver.check:                            ; preds = %5
  %44 = sext i32 %2 to i64
  %ident.check.not = icmp eq i32 %2, 1
  br i1 %ident.check.not, label %.preheader.ph, label %.preheader.lver.orig

.preheader.lver.orig:                             ; preds = %.preheader.lver.check, %.preheader.lver.orig
  %indvars.iv93.lver.orig = phi i64 [ %indvars.iv.next94.lver.orig, %.preheader.lver.orig ], [ 0, %.preheader.lver.check ]
  %45 = shl nuw nsw i64 %indvars.iv93.lver.orig, 2
  %46 = getelementptr inbounds nuw [16 x i32], ptr %4, i64 0, i64 %45
  %47 = load i32, ptr %46, align 16, !tbaa !8
  %48 = or disjoint i64 %45, 1
  %49 = getelementptr inbounds nuw [16 x i32], ptr %4, i64 0, i64 %48
  %50 = load i32, ptr %49, align 4, !tbaa !8
  %51 = or disjoint i64 %45, 2
  %52 = getelementptr inbounds nuw [16 x i32], ptr %4, i64 0, i64 %51
  %53 = load i32, ptr %52, align 8, !tbaa !8
  %54 = or disjoint i64 %45, 3
  %55 = getelementptr inbounds nuw [16 x i32], ptr %4, i64 0, i64 %54
  %56 = load i32, ptr %55, align 4, !tbaa !8
  %57 = add nsw i32 %53, %47
  %58 = mul nsw i32 %57, 13
  %59 = sub nsw i32 %47, %53
  %60 = mul nsw i32 %59, 13
  %61 = mul nsw i32 %50, 7
  %.neg.lver.orig = mul i32 %56, -17
  %62 = add i32 %.neg.lver.orig, %61
  %63 = mul nsw i32 %56, 7
  %64 = mul nsw i32 %50, 17
  %65 = add nsw i32 %63, %64
  %66 = mul nsw i64 %indvars.iv93.lver.orig, %44
  %67 = getelementptr inbounds i8, ptr %1, i64 %66
  %68 = load i8, ptr %67, align 1, !tbaa !12
  %69 = zext i8 %68 to i32
  %70 = add i32 %58, 16
  %71 = add i32 %70, %65
  %72 = ashr i32 %71, 5
  %73 = add nsw i32 %72, %69
  %.not.i.lver.orig = icmp ult i32 %73, 256
  %isnotneg.i.lver.orig = icmp sgt i32 %73, -1
  %74 = sext i1 %isnotneg.i.lver.orig to i8
  %75 = trunc nuw i32 %73 to i8
  %.0.i.lver.orig = select i1 %.not.i.lver.orig, i8 %75, i8 %74
  store i8 %.0.i.lver.orig, ptr %67, align 1, !tbaa !12
  %76 = getelementptr i8, ptr %67, i64 1
  %77 = load i8, ptr %76, align 1, !tbaa !12
  %78 = zext i8 %77 to i32
  %79 = add i32 %60, 16
  %80 = add i32 %79, %62
  %81 = ashr i32 %80, 5
  %82 = add nsw i32 %81, %78
  %.not.i77.lver.orig = icmp ult i32 %82, 256
  %isnotneg.i78.lver.orig = icmp sgt i32 %82, -1
  %83 = sext i1 %isnotneg.i78.lver.orig to i8
  %84 = trunc nuw i32 %82 to i8
  %.0.i79.lver.orig = select i1 %.not.i77.lver.orig, i8 %84, i8 %83
  store i8 %.0.i79.lver.orig, ptr %76, align 1, !tbaa !12
  %85 = getelementptr i8, ptr %67, i64 2
  %86 = load i8, ptr %85, align 1, !tbaa !12
  %87 = zext i8 %86 to i32
  %88 = sub i32 %79, %62
  %89 = ashr i32 %88, 5
  %90 = add nsw i32 %89, %87
  %.not.i80.lver.orig = icmp ult i32 %90, 256
  %isnotneg.i81.lver.orig = icmp sgt i32 %90, -1
  %91 = sext i1 %isnotneg.i81.lver.orig to i8
  %92 = trunc nuw i32 %90 to i8
  %.0.i82.lver.orig = select i1 %.not.i80.lver.orig, i8 %92, i8 %91
  store i8 %.0.i82.lver.orig, ptr %85, align 1, !tbaa !12
  %93 = getelementptr i8, ptr %67, i64 3
  %94 = load i8, ptr %93, align 1, !tbaa !12
  %95 = zext i8 %94 to i32
  %96 = sub i32 %70, %65
  %97 = ashr i32 %96, 5
  %98 = add nsw i32 %97, %95
  %.not.i83.lver.orig = icmp ult i32 %98, 256
  %isnotneg.i84.lver.orig = icmp sgt i32 %98, -1
  %99 = sext i1 %isnotneg.i84.lver.orig to i8
  %100 = trunc nuw i32 %98 to i8
  %.0.i85.lver.orig = select i1 %.not.i83.lver.orig, i8 %100, i8 %99
  store i8 %.0.i85.lver.orig, ptr %93, align 1, !tbaa !12
  %indvars.iv.next94.lver.orig = add nuw nsw i64 %indvars.iv93.lver.orig, 1
  %exitcond96.not.lver.orig = icmp eq i64 %indvars.iv.next94.lver.orig, 4
  br i1 %exitcond96.not.lver.orig, label %.loopexit, label %.preheader.lver.orig, !llvm.loop !13

.preheader.ph:                                    ; preds = %.preheader.lver.check
  %scevgep = getelementptr i8, ptr %1, i64 2
  %load_initial = load i8, ptr %scevgep, align 1
  br label %.preheader

.loopexit:                                        ; preds = %.preheader.lver.orig, %.preheader
  call void @llvm.lifetime.end.p0(i64 64, ptr nonnull %4) #3
  ret void

.preheader:                                       ; preds = %.preheader.ph, %.preheader
  %store_forwarded = phi i8 [ %load_initial, %.preheader.ph ], [ %.0.i85, %.preheader ]
  %indvars.iv93 = phi i64 [ 0, %.preheader.ph ], [ %indvars.iv.next94, %.preheader ]
  %101 = shl nuw nsw i64 %indvars.iv93, 2
  %102 = getelementptr inbounds nuw [16 x i32], ptr %4, i64 0, i64 %101
  %103 = load i32, ptr %102, align 16, !tbaa !8
  %104 = or disjoint i64 %101, 1
  %105 = getelementptr inbounds nuw [16 x i32], ptr %4, i64 0, i64 %104
  %106 = load i32, ptr %105, align 4, !tbaa !8
  %107 = or disjoint i64 %101, 2
  %108 = getelementptr inbounds nuw [16 x i32], ptr %4, i64 0, i64 %107
  %109 = load i32, ptr %108, align 8, !tbaa !8
  %110 = or disjoint i64 %101, 3
  %111 = getelementptr inbounds nuw [16 x i32], ptr %4, i64 0, i64 %110
  %112 = load i32, ptr %111, align 4, !tbaa !8
  %113 = add nsw i32 %109, %103
  %114 = mul nsw i32 %113, 13
  %115 = sub nsw i32 %103, %109
  %116 = mul nsw i32 %115, 13
  %117 = mul nsw i32 %106, 7
  %.neg = mul i32 %112, -17
  %118 = add i32 %.neg, %117
  %119 = mul nsw i32 %112, 7
  %120 = mul nsw i32 %106, 17
  %121 = add nsw i32 %119, %120
  %122 = mul nuw nsw i64 %indvars.iv93, %44
  %123 = getelementptr inbounds nuw i8, ptr %1, i64 %122
  %124 = load i8, ptr %123, align 1, !tbaa !12
  %125 = zext i8 %124 to i32
  %126 = add i32 %114, 16
  %127 = add i32 %126, %121
  %128 = ashr i32 %127, 5
  %129 = add nsw i32 %128, %125
  %.not.i = icmp ult i32 %129, 256
  %isnotneg.i = icmp sgt i32 %129, -1
  %130 = sext i1 %isnotneg.i to i8
  %131 = trunc nuw i32 %129 to i8
  %.0.i = select i1 %.not.i, i8 %131, i8 %130
  store i8 %.0.i, ptr %123, align 1, !tbaa !12
  %132 = getelementptr i8, ptr %123, i64 1
  %133 = load i8, ptr %132, align 1, !tbaa !12
  %134 = zext i8 %133 to i32
  %135 = add i32 %116, 16
  %136 = add i32 %135, %118
  %137 = ashr i32 %136, 5
  %138 = add nsw i32 %137, %134
  %.not.i77 = icmp ult i32 %138, 256
  %isnotneg.i78 = icmp sgt i32 %138, -1
  %139 = sext i1 %isnotneg.i78 to i8
  %140 = trunc nuw i32 %138 to i8
  %.0.i79 = select i1 %.not.i77, i8 %140, i8 %139
  store i8 %.0.i79, ptr %132, align 1, !tbaa !12
  %141 = getelementptr i8, ptr %123, i64 2
  %142 = zext i8 %store_forwarded to i32
  %143 = sub i32 %135, %118
  %144 = ashr i32 %143, 5
  %145 = add nsw i32 %144, %142
  %.not.i80 = icmp ult i32 %145, 256
  %isnotneg.i81 = icmp sgt i32 %145, -1
  %146 = sext i1 %isnotneg.i81 to i8
  %147 = trunc nuw i32 %145 to i8
  %.0.i82 = select i1 %.not.i80, i8 %147, i8 %146
  store i8 %.0.i82, ptr %141, align 1, !tbaa !12
  %148 = getelementptr i8, ptr %123, i64 3
  %149 = load i8, ptr %148, align 1, !tbaa !12
  %150 = zext i8 %149 to i32
  %151 = sub i32 %126, %121
  %152 = ashr i32 %151, 5
  %153 = add nsw i32 %152, %150
  %.not.i83 = icmp ult i32 %153, 256
  %isnotneg.i84 = icmp sgt i32 %153, -1
  %154 = sext i1 %isnotneg.i84 to i8
  %155 = trunc nuw i32 %153 to i8
  %.0.i85 = select i1 %.not.i83, i8 %155, i8 %154
  store i8 %.0.i85, ptr %148, align 1, !tbaa !12
  %indvars.iv.next94 = add nuw nsw i64 %indvars.iv93, 1
  %exitcond96.not = icmp eq i64 %indvars.iv.next94, 4
  br i1 %exitcond96.not, label %.loopexit, label %.preheader, !llvm.loop !13
}